target datalayout = "e-m:e-p270:32:32-p271:32:32-p272:64:64-i64:64-i128:128-f80:128-n8:16:32:64-S128"
target triple = "x86_64-pc-linux-gnu"

%struct.rb_data_type_struct = type { ptr, %struct.anon.2, ptr, ptr, i64 }
%struct.anon.2 = type { ptr, ptr, ptr, ptr, [1 x ptr] }
%struct.zstream = type { i64, i64, i64, i64, %struct.z_stream_s, ptr }
%struct.z_stream_s = type { ptr, i32, i64, ptr, i32, i64, ptr, ptr, ptr, ptr, ptr, i32, i64, i64 }
%struct.RString = type { %struct.RBasic, i64, %union.anon }
%struct.RBasic = type { i64, i64 }
%union.anon = type { %struct.anon }
%struct.anon = type { ptr, %union.anon.0 }
%union.anon.0 = type { i64 }
%struct.anon.1 = type { [1 x i8] }

@cZError = internal global i64 0, align 8
@zstream_data_type = internal constant %struct.rb_data_type_struct { ptr @.str.147, %struct.anon.2 { ptr @zstream_mark, ptr @zstream_free, ptr @zstream_memsize, ptr null, [1 x ptr] zeroinitializer }, ptr null, ptr null, i64 1 }, align 8
@.str.150 = private unnamed_addr constant [20 x i8] c"stream is not ready\00", align 1

; Function Attrs: inlinehint nounwind sspstrong willreturn memory(read) uwtable
define internal i64 @RB_FL_TEST_RAW(i64 noundef %0, i64 noundef %1) #6 {
  %3 = alloca i64, align 8
  %4 = alloca i64, align 8
  store i64 %0, ptr %3, align 8, !tbaa !6
  store i64 %1, ptr %4, align 8, !tbaa !6
  %5 = load i64, ptr %3, align 8, !tbaa !6
  %6 = inttoptr i64 %5 to ptr
  %7 = getelementptr inbounds nuw %struct.RBasic, ptr %6, i32 0, i32 0
  %8 = load i64, ptr %7, align 8, !tbaa !91
  %9 = load i64, ptr %4, align 8, !tbaa !6
  %10 = and i64 %8, %9
  ret i64 %10
}

; Function Attrs: inlinehint nounwind sspstrong willreturn memory(read) uwtable
define internal i64 @RSTRING_LEN(i64 noundef %0) #6 {
  %2 = alloca i64, align 8
  store i64 %0, ptr %2, align 8, !tbaa !6
  %3 = load i64, ptr %2, align 8, !tbaa !6
  %4 = inttoptr i64 %3 to ptr
  %5 = getelementptr inbounds nuw %struct.RString, ptr %4, i32 0, i32 1
  %6 = load i64, ptr %5, align 8, !tbaa !88
  ret i64 %6
}

; Function Attrs: inlinehint nounwind sspstrong willreturn memory(read) uwtable
define internal zeroext i1 @RB_FL_ANY_RAW(i64 noundef %0, i64 noundef %1) #6 {
  %3 = alloca i64, align 8
  %4 = alloca i64, align 8
  store i64 %0, ptr %3, align 8, !tbaa !6
  store i64 %1, ptr %4, align 8, !tbaa !6
  %5 = load i64, ptr %3, align 8, !tbaa !6
  %6 = load i64, ptr %4, align 8, !tbaa !6
  %7 = call i64 @RB_FL_TEST_RAW(i64 noundef %5, i64 noundef %6) #25
  %8 = icmp ne i64 %7, 0
  ret i1 %8
}

; Function Attrs: inlinehint nounwind sspstrong willreturn memory(read, argmem: readwrite) uwtable
define internal void @rbimpl_rstring_getmem(ptr dead_on_unwind noalias writable sret(%struct.RString) align 8 %0, i64 noundef %1) #9 {
  %3 = alloca i64, align 8
  store i64 %1, ptr %3, align 8, !tbaa !6
  %4 = load i64, ptr %3, align 8, !tbaa !6
  %5 = call zeroext i1 @RB_FL_ANY_RAW(i64 noundef %4, i64 noundef 8192) #25
  br i1 %5, label %6, label %9

6:                                                ; preds = %2
  %7 = load i64, ptr %3, align 8, !tbaa !6
  %8 = inttoptr i64 %7 to ptr
  call void @llvm.memcpy.p0.p0.i64(ptr align 8 %0, ptr align 8 %8, i64 40, i1 false), !tbaa.struct !92
  br label %20

9:                                                ; preds = %2
  %10 = load i64, ptr %3, align 8, !tbaa !6
  %11 = call i64 @RSTRING_LEN(i64 noundef %10) #25
  %12 = getelementptr inbounds nuw %struct.RString, ptr %0, i32 0, i32 1
  store i64 %11, ptr %12, align 8, !tbaa !88
  %13 = load i64, ptr %3, align 8, !tbaa !6
  %14 = inttoptr i64 %13 to ptr
  %15 = getelementptr inbounds nuw %struct.RString, ptr %14, i32 0, i32 2
  %16 = getelementptr inbounds nuw %struct.anon.1, ptr %15, i32 0, i32 0
  %17 = getelementptr inbounds [1 x i8], ptr %16, i64 0, i64 0
  %18 = getelementptr inbounds nuw %struct.RString, ptr %0, i32 0, i32 2
  %19 = getelementptr inbounds nuw %struct.anon, ptr %18, i32 0, i32 0
  store ptr %17, ptr %19, align 8, !tbaa !68
  br label %20

20:                                               ; preds = %9, %6
  ret void
}

; Function Attrs: inlinehint nounwind sspstrong uwtable
define internal ptr @RSTRING_END(i64 noundef %0) #3 {
  %2 = alloca i64, align 8
  %3 = alloca %struct.RString, align 8
  store i64 %0, ptr %2, align 8, !tbaa !6
  call void @llvm.lifetime.start.p0(i64 40, ptr %3) #23
  %4 = load i64, ptr %2, align 8, !tbaa !6
  call void @rbimpl_rstring_getmem(ptr dead_on_unwind writable sret(%struct.RString) align 8 %3, i64 noundef %4) #28
  %5 = getelementptr inbounds nuw %struct.RString, ptr %3, i32 0, i32 2
  %6 = getelementptr inbounds nuw %struct.anon, ptr %5, i32 0, i32 0
  %7 = load ptr, ptr %6, align 8, !tbaa !68
  %8 = getelementptr inbounds nuw %struct.RString, ptr %3, i32 0, i32 1
  %9 = load i64, ptr %8, align 8, !tbaa !88
  %10 = getelementptr inbounds i8, ptr %7, i64 %9
  call void @llvm.lifetime.end.p0(i64 40, ptr %3) #23
  ret ptr %10
}

; Function Attrs: inlinehint nounwind sspstrong uwtable
define internal i32 @max_uint(i64 noundef %0) #3 {
  %2 = alloca i64, align 8
  store i64 %0, ptr %2, align 8, !tbaa !6
  %3 = load i64, ptr %2, align 8, !tbaa !6
  %4 = icmp sgt i64 %3, 4294967295
  br i1 %4, label %5, label %6

5:                                                ; preds = %1
  store i64 4294967295, ptr %2, align 8, !tbaa !6
  br label %6

6:                                                ; preds = %5, %1
  %7 = load i64, ptr %2, align 8, !tbaa !6
  %8 = trunc i64 %7 to i32
  ret i32 %8
}

; Function Attrs: inlinehint nounwind sspstrong uwtable
define internal ptr @RSTRING_PTR(i64 noundef %0) #3 {
  %2 = alloca i64, align 8
  %3 = alloca ptr, align 8
  %4 = alloca %struct.RString, align 8
  store i64 %0, ptr %2, align 8, !tbaa !6
  call void @llvm.lifetime.start.p0(i64 8, ptr %3) #23
  %5 = load i64, ptr %2, align 8, !tbaa !6
  call void @rbimpl_rstring_getmem(ptr dead_on_unwind writable sret(%struct.RString) align 8 %4, i64 noundef %5) #28
  %6 = getelementptr inbounds nuw %struct.RString, ptr %4, i32 0, i32 2
  %7 = getelementptr inbounds nuw %struct.anon, ptr %6, i32 0, i32 0
  %8 = load ptr, ptr %7, align 8, !tbaa !68
  store ptr %8, ptr %3, align 8, !tbaa !19
  %9 = load ptr, ptr %3, align 8, !tbaa !19
  call void @llvm.lifetime.end.p0(i64 8, ptr %3) #23
  ret ptr %9
}

; Function Attrs: inlinehint nounwind sspstrong willreturn memory(none) uwtable
define internal zeroext i1 @RB_NIL_P(i64 noundef %0) #5 {
  %2 = alloca i64, align 8
  store i64 %0, ptr %2, align 8, !tbaa !6
  %3 = load i64, ptr %2, align 8, !tbaa !6
  %4 = icmp eq i64 %3, 4
  ret i1 %4
}

; Function Attrs: nounwind sspstrong uwtable
define internal void @zstream_expand_buffer_into(ptr noundef %0, i64 noundef %1) #0 {
  %3 = alloca ptr, align 8
  %4 = alloca i64, align 8
  store ptr %0, ptr %3, align 8, !tbaa !21
  store i64 %1, ptr %4, align 8, !tbaa !6
  %5 = load ptr, ptr %3, align 8, !tbaa !21
  %6 = getelementptr inbounds nuw %struct.zstream, ptr %5, i32 0, i32 1
  %7 = load i64, ptr %6, align 8, !tbaa !35
  %8 = call zeroext i1 @RB_NIL_P(i64 noundef %7) #24
  br i1 %8, label %9, label %30

9:                                                ; preds = %2
  %10 = load i64, ptr %4, align 8, !tbaa !6
  %11 = call i64 @rb_str_buf_new(i64 noundef %10)
  %12 = load ptr, ptr %3, align 8, !tbaa !21
  %13 = getelementptr inbounds nuw %struct.zstream, ptr %12, i32 0, i32 1
  store i64 %11, ptr %13, align 8, !tbaa !35
  %14 = load ptr, ptr %3, align 8, !tbaa !21
  %15 = getelementptr inbounds nuw %struct.zstream, ptr %14, i32 0, i32 1
  %16 = load i64, ptr %15, align 8, !tbaa !35
  %17 = call ptr @RSTRING_PTR(i64 noundef %16)
  %18 = load ptr, ptr %3, align 8, !tbaa !21
  %19 = getelementptr inbounds nuw %struct.zstream, ptr %18, i32 0, i32 4
  %20 = getelementptr inbounds nuw %struct.z_stream_s, ptr %19, i32 0, i32 3
  store ptr %17, ptr %20, align 8, !tbaa !96
  %21 = load i64, ptr %4, align 8, !tbaa !6
  %22 = call i32 @max_uint(i64 noundef %21)
  %23 = load ptr, ptr %3, align 8, !tbaa !21
  %24 = getelementptr inbounds nuw %struct.zstream, ptr %23, i32 0, i32 4
  %25 = getelementptr inbounds nuw %struct.z_stream_s, ptr %24, i32 0, i32 4
  store i32 %22, ptr %25, align 8, !tbaa !23
  %26 = load ptr, ptr %3, align 8, !tbaa !21
  %27 = getelementptr inbounds nuw %struct.zstream, ptr %26, i32 0, i32 1
  %28 = load i64, ptr %27, align 8, !tbaa !35
  %29 = call i64 @rb_obj_hide(i64 noundef %28)
  br label %56

30:                                               ; preds = %2
  %31 = load ptr, ptr %3, align 8, !tbaa !21
  %32 = getelementptr inbounds nuw %struct.zstream, ptr %31, i32 0, i32 4
  %33 = getelementptr inbounds nuw %struct.z_stream_s, ptr %32, i32 0, i32 4
  %34 = load i32, ptr %33, align 8, !tbaa !23
  %35 = zext i32 %34 to i64
  %36 = load i64, ptr %4, align 8, !tbaa !6
  %37 = icmp ne i64 %35, %36
  br i1 %37, label %38, label %55

38:                                               ; preds = %30
  %39 = load ptr, ptr %3, align 8, !tbaa !21
  %40 = getelementptr inbounds nuw %struct.zstream, ptr %39, i32 0, i32 1
  %41 = load i64, ptr %40, align 8, !tbaa !35
  %42 = load i64, ptr %4, align 8, !tbaa !6
  call void @rb_str_modify_expand(i64 noundef %41, i64 noundef %42)
  %43 = load ptr, ptr %3, align 8, !tbaa !21
  %44 = getelementptr inbounds nuw %struct.zstream, ptr %43, i32 0, i32 1
  %45 = load i64, ptr %44, align 8, !tbaa !35
  %46 = call ptr @RSTRING_END(i64 noundef %45)
  %47 = load ptr, ptr %3, align 8, !tbaa !21
  %48 = getelementptr inbounds nuw %struct.zstream, ptr %47, i32 0, i32 4
  %49 = getelementptr inbounds nuw %struct.z_stream_s, ptr %48, i32 0, i32 3
  store ptr %46, ptr %49, align 8, !tbaa !96
  %50 = load i64, ptr %4, align 8, !tbaa !6
  %51 = call i32 @max_uint(i64 noundef %50)
  %52 = load ptr, ptr %3, align 8, !tbaa !21
  %53 = getelementptr inbounds nuw %struct.zstream, ptr %52, i32 0, i32 4
  %54 = getelementptr inbounds nuw %struct.z_stream_s, ptr %53, i32 0, i32 4
  store i32 %51, ptr %54, align 8, !tbaa !23
  br label %55

55:                                               ; preds = %38, %30
  br label %56

56:                                               ; preds = %55, %9
  ret void
}

; Function Attrs: inlinehint nounwind sspstrong uwtable
define internal i32 @RB_FIX2INT(i64 noundef %0) #3 {
  %2 = alloca i64, align 8
  %3 = alloca i64, align 8
  store i64 %0, ptr %2, align 8, !tbaa !6
  call void @llvm.lifetime.start.p0(i64 8, ptr %3) #23
  %4 = load i64, ptr %2, align 8, !tbaa !6
  %5 = call i64 @rb_fix2int(i64 noundef %4)
  store i64 %5, ptr %3, align 8, !tbaa !6
  %6 = load i64, ptr %3, align 8, !tbaa !6
  %7 = trunc i64 %6 to i32
  call void @llvm.lifetime.end.p0(i64 8, ptr %3) #23
  ret i32 %7
}

; Function Attrs: nounwind sspstrong uwtable
define internal ptr @get_zstream(i64 noundef %0) #0 {
  %2 = alloca i64, align 8
  %3 = alloca ptr, align 8
  store i64 %0, ptr %2, align 8, !tbaa !6
  call void @llvm.lifetime.start.p0(i64 8, ptr %3) #23
  %4 = load i64, ptr %2, align 8, !tbaa !6
  %5 = call ptr @rb_check_typeddata(i64 noundef %4, ptr noundef @zstream_data_type)
  store ptr %5, ptr %3, align 8, !tbaa !21
  %6 = load ptr, ptr %3, align 8, !tbaa !21
  %7 = getelementptr inbounds nuw %struct.zstream, ptr %6, i32 0, i32 0
  %8 = load i64, ptr %7, align 8, !tbaa !33
  %9 = and i64 %8, 1
  %10 = icmp ne i64 %9, 0
  br i1 %10, label %13, label %11

11:                                               ; preds = %1
  %12 = load i64, ptr @cZError, align 8, !tbaa !6
  call void (i64, ptr, ...) @rb_raise(i64 noundef %12, ptr noundef @.str.150) #26
  unreachable

13:                                               ; preds = %1
  %14 = load ptr, ptr %3, align 8, !tbaa !21
  call void @llvm.lifetime.end.p0(i64 8, ptr %3) #23
  ret ptr %14
}

; Function Attrs: nounwind sspstrong uwtable
define internal i64 @rb_zstream_set_avail_out(i64 noundef %0, i64 noundef %1) #0 {
  %3 = alloca i64, align 8
  %4 = alloca i64, align 8
  %5 = alloca ptr, align 8
  store i64 %0, ptr %3, align 8, !tbaa !6
  store i64 %1, ptr %4, align 8, !tbaa !6
  call void @llvm.lifetime.start.p0(i64 8, ptr %5) #23
  %6 = load i64, ptr %3, align 8, !tbaa !6
  %7 = call ptr @get_zstream(i64 noundef %6)
  store ptr %7, ptr %5, align 8, !tbaa !21
  %8 = load ptr, ptr %5, align 8, !tbaa !21
  %9 = load i64, ptr %4, align 8, !tbaa !6
  %10 = call i32 @RB_FIX2INT(i64 noundef %9)
  %11 = sext i32 %10 to i64
  call void @zstream_expand_buffer_into(ptr noundef %8, i64 noundef %11)
  %12 = load i64, ptr %4, align 8, !tbaa !6
  call void @llvm.lifetime.end.p0(i64 8, ptr %5) #23
  ret i64 %12
}