; Function Attrs: nounwind sspstrong uwtable
define internal noundef i64 @rb_zstream_set_avail_out(i64 noundef %0, i64 noundef returned %1) #0 {
  %3 = tail call ptr @rb_check_typeddata(i64 noundef %0, ptr noundef nonnull @zstream_data_type) #18
  %4 = load i64, ptr %3, align 8, !tbaa !42
  %5 = and i64 %4, 1
  %.not.i = icmp eq i64 %5, 0
  br i1 %.not.i, label %6, label %get_zstream.exit

6:                                                ; preds = %2
  %7 = load i64, ptr @cZError, align 8, !tbaa !6
  tail call void (i64, ptr, ...) @rb_raise(i64 noundef %7, ptr noundef nonnull @.str.150) #19
  unreachable

get_zstream.exit:                                 ; preds = %2
  %8 = tail call i64 @rb_fix2int(i64 noundef %1) #18
  %9 = trunc i64 %8 to i32
  %sext = shl i64 %8, 32
  %10 = ashr exact i64 %sext, 32
  %11 = getelementptr inbounds nuw i8, ptr %3, i64 8
  %12 = load i64, ptr %11, align 8, !tbaa !43
  %13 = icmp eq i64 %12, 4
  br i1 %13, label %14, label %24

14:                                               ; preds = %get_zstream.exit
  %15 = tail call i64 @rb_str_buf_new(i64 noundef %10) #18
  store i64 %15, ptr %11, align 8, !tbaa !43
  %16 = inttoptr i64 %15 to ptr
  %17 = load i64, ptr %16, align 8, !tbaa !16, !noalias !44
  %18 = and i64 %17, 8192
  %.not.i.i.i = icmp eq i64 %18, 0
  %19 = getelementptr inbounds nuw i8, ptr %16, i64 24
  br i1 %.not.i.i.i, label %RSTRING_PTR.exit.i, label %20

20:                                               ; preds = %14
  %.sroa.2.0.copyload.i.i = load ptr, ptr %19, align 8
  br label %RSTRING_PTR.exit.i

RSTRING_PTR.exit.i:                               ; preds = %20, %14
  %.sroa.2.0.i.i = phi ptr [ %.sroa.2.0.copyload.i.i, %20 ], [ %19, %14 ]
  %21 = getelementptr inbounds nuw i8, ptr %3, i64 56
  store ptr %.sroa.2.0.i.i, ptr %21, align 8, !tbaa !47
  %22 = getelementptr inbounds nuw i8, ptr %3, i64 64
  store i32 %9, ptr %22, align 8, !tbaa !36
  %23 = tail call i64 @rb_obj_hide(i64 noundef %15) #18
  br label %zstream_expand_buffer_into.exit

24:                                               ; preds = %get_zstream.exit
  %25 = getelementptr inbounds nuw i8, ptr %3, i64 64
  %26 = load i32, ptr %25, align 8, !tbaa !36
  %27 = zext i32 %26 to i64
  %.not.i3 = icmp eq i64 %10, %27
  br i1 %.not.i3, label %zstream_expand_buffer_into.exit, label %28

28:                                               ; preds = %24
  tail call void @rb_str_modify_expand(i64 noundef %12, i64 noundef %10) #18
  %29 = load i64, ptr %11, align 8, !tbaa !43
  %30 = inttoptr i64 %29 to ptr
  %31 = load i64, ptr %30, align 8, !tbaa !16, !noalias !48
  %32 = and i64 %31, 8192
  %.not.i.i15.i = icmp eq i64 %32, 0
  %33 = getelementptr inbounds nuw i8, ptr %30, i64 24
  br i1 %.not.i.i15.i, label %RSTRING_END.exit.i, label %34

34:                                               ; preds = %28
  %.sroa.5.0.copyload.i.i = load ptr, ptr %33, align 8
  br label %RSTRING_END.exit.i

RSTRING_END.exit.i:                               ; preds = %34, %28
  %.sroa.5.0.i.i = phi ptr [ %.sroa.5.0.copyload.i.i, %34 ], [ %33, %28 ]
  %.sroa.3.0.in.i.i = getelementptr inbounds nuw i8, ptr %30, i64 16
  %.sroa.3.0.i.i = load i64, ptr %.sroa.3.0.in.i.i, align 8, !tbaa !6
  %35 = getelementptr inbounds i8, ptr %.sroa.5.0.i.i, i64 %.sroa.3.0.i.i
  %36 = getelementptr inbounds nuw i8, ptr %3, i64 56
  store ptr %35, ptr %36, align 8, !tbaa !47
  store i32 %9, ptr %25, align 8, !tbaa !36
  br label %zstream_expand_buffer_into.exit

zstream_expand_buffer_into.exit:                  ; preds = %RSTRING_PTR.exit.i, %24, %RSTRING_END.exit.i
  ret i64 %1
}